target datalayout = "e-m:e-p270:32:32-p271:32:32-p272:64:64-i64:64-i128:128-f80:128-n8:16:32:64-S128"
target triple = "x86_64-pc-linux-gnu"

@.str.2 = private unnamed_addr constant [97 x i8] c"generated/home/dtcxzyw/WorkSpace/Projects/compilers/llvm-opt-benchmark/bench/hdf5/hdf5/src/H5T.c\00", align 1
@H5E_DATATYPE_g = external global i64, align 8
@H5E_CANTINIT_g = external global i64, align 8
@H5E_ARGS_g = external global i64, align 8
@H5E_BADTYPE_g = external global i64, align 8
@.str.12 = private unnamed_addr constant [15 x i8] c"not a datatype\00", align 1
@H5_libinit_g = external global i8, align 1
@H5_libterm_g = external global i8, align 1
@H5E_FUNC_g = external global i64, align 8
@.str.221 = private unnamed_addr constant [30 x i8] c"library initialization failed\00", align 1
@H5E_CANTSET_g = external global i64, align 8
@.str.222 = private unnamed_addr constant [22 x i8] c"can't set API context\00", align 1
@H5E_BADVALUE_g = external global i64, align 8
@__func__.H5Tencode = private unnamed_addr constant [10 x i8] c"H5Tencode\00", align 1
@.str.278 = private unnamed_addr constant [29 x i8] c"NULL pointer for buffer size\00", align 1
@H5E_CANTENCODE_g = external global i64, align 8
@.str.279 = private unnamed_addr constant [22 x i8] c"can't encode datatype\00", align 1

; Function Attrs: nounwind uwtable
define i32 @H5Tencode(i64 noundef %0, ptr noundef %1, ptr noundef %2) #0 {
  %4 = alloca i64, align 8
  %5 = alloca ptr, align 8
  %6 = alloca ptr, align 8
  %7 = alloca ptr, align 8
  %8 = alloca i32, align 4
  %9 = alloca i8, align 1
  %10 = alloca i8, align 1
  store i64 %0, ptr %4, align 8
  store ptr %1, ptr %5, align 8
  store ptr %2, ptr %6, align 8
  store i32 0, ptr %8, align 4
  store i8 0, ptr %9, align 1
  store i8 0, ptr %10, align 1
  %11 = load i8, ptr @H5_libinit_g, align 1
  %12 = trunc i8 %11 to i1
  br i1 %12, label %17, label %13

13:                                               ; preds = %3
  %14 = load i8, ptr @H5_libterm_g, align 1
  %15 = trunc i8 %14 to i1
  %16 = xor i1 %15, true
  br label %17

17:                                               ; preds = %13, %3
  %18 = phi i1 [ false, %3 ], [ %16, %13 ]
  %19 = xor i1 %18, true
  %20 = xor i1 %19, true
  %21 = zext i1 %20 to i32
  %22 = sext i32 %21 to i64
  %23 = icmp ne i64 %22, 0
  br i1 %23, label %24, label %48

24:                                               ; preds = %17
  %25 = call i32 @H5_init_library()
  %26 = icmp slt i32 %25, 0
  %27 = xor i1 %26, true
  %28 = xor i1 %27, true
  %29 = zext i1 %28 to i32
  %30 = sext i32 %29 to i64
  %31 = icmp ne i64 %30, 0
  br i1 %31, label %32, label %47

32:                                               ; preds = %24
  br label %33

33:                                               ; preds = %32
  br label %34

34:                                               ; preds = %33
  br label %35

35:                                               ; preds = %34
  %36 = load i64, ptr @H5E_FUNC_g, align 8
  %37 = load i64, ptr @H5E_CANTINIT_g, align 8
  %38 = call i32 (ptr, ptr, i32, i64, i64, ptr, ...) @H5E_printf_stack(ptr noundef @.str.2, ptr noundef @__func__.H5Tencode, i32 noundef 3188, i64 noundef %36, i64 noundef %37, ptr noundef @.str.221)
  br label %39

39:                                               ; preds = %35
  store i8 1, ptr %10, align 1
  %40 = load i8, ptr %10, align 1
  %41 = trunc i8 %40 to i1
  %42 = zext i1 %41 to i8
  store i8 %42, ptr %10, align 1
  br label %43

43:                                               ; preds = %39
  br label %44

44:                                               ; preds = %43
  store i32 -1, ptr %8, align 4
  br label %132

45:                                               ; No predecessors!
  br label %46

46:                                               ; preds = %45
  br label %47

47:                                               ; preds = %46, %24
  br label %48

48:                                               ; preds = %47, %17
  %49 = call i32 @H5CX_push()
  %50 = icmp slt i32 %49, 0
  %51 = xor i1 %50, true
  %52 = xor i1 %51, true
  %53 = zext i1 %52 to i32
  %54 = sext i32 %53 to i64
  %55 = icmp ne i64 %54, 0
  br i1 %55, label %56, label %71

56:                                               ; preds = %48
  br label %57

57:                                               ; preds = %56
  br label %58

58:                                               ; preds = %57
  br label %59

59:                                               ; preds = %58
  %60 = load i64, ptr @H5E_FUNC_g, align 8
  %61 = load i64, ptr @H5E_CANTSET_g, align 8
  %62 = call i32 (ptr, ptr, i32, i64, i64, ptr, ...) @H5E_printf_stack(ptr noundef @.str.2, ptr noundef @__func__.H5Tencode, i32 noundef 3188, i64 noundef %60, i64 noundef %61, ptr noundef @.str.222)
  br label %63

63:                                               ; preds = %59
  store i8 1, ptr %10, align 1
  %64 = load i8, ptr %10, align 1
  %65 = trunc i8 %64 to i1
  %66 = zext i1 %65 to i8
  store i8 %66, ptr %10, align 1
  br label %67

67:                                               ; preds = %63
  br label %68

68:                                               ; preds = %67
  store i32 -1, ptr %8, align 4
  br label %132

69:                                               ; No predecessors!
  br label %70

70:                                               ; preds = %69
  br label %72

71:                                               ; preds = %48
  store i8 1, ptr %9, align 1
  br label %72

72:                                               ; preds = %71, %70
  %73 = call i32 @H5E_clear_stack()
  %74 = load i64, ptr %4, align 8
  %75 = call ptr @H5I_object_verify(i64 noundef %74, i32 noundef 3)
  store ptr %75, ptr %7, align 8
  %76 = icmp eq ptr null, %75
  br i1 %76, label %77, label %92

77:                                               ; preds = %72
  br label %78

78:                                               ; preds = %77
  br label %79

79:                                               ; preds = %78
  br label %80

80:                                               ; preds = %79
  %81 = load i64, ptr @H5E_ARGS_g, align 8
  %82 = load i64, ptr @H5E_BADTYPE_g, align 8
  %83 = call i32 (ptr, ptr, i32, i64, i64, ptr, ...) @H5E_printf_stack(ptr noundef @.str.2, ptr noundef @__func__.H5Tencode, i32 noundef 3192, i64 noundef %81, i64 noundef %82, ptr noundef @.str.12)
  br label %84

84:                                               ; preds = %80
  store i8 1, ptr %10, align 1
  %85 = load i8, ptr %10, align 1
  %86 = trunc i8 %85 to i1
  %87 = zext i1 %86 to i8
  store i8 %87, ptr %10, align 1
  br label %88

88:                                               ; preds = %84
  br label %89

89:                                               ; preds = %88
  store i32 -1, ptr %8, align 4
  br label %132

90:                                               ; No predecessors!
  br label %91

91:                                               ; preds = %90
  br label %92

92:                                               ; preds = %91, %72
  %93 = load ptr, ptr %6, align 8
  %94 = icmp eq ptr %93, null
  br i1 %94, label %95, label %110

95:                                               ; preds = %92
  br label %96

96:                                               ; preds = %95
  br label %97

97:                                               ; preds = %96
  br label %98

98:                                               ; preds = %97
  %99 = load i64, ptr @H5E_ARGS_g, align 8
  %100 = load i64, ptr @H5E_BADVALUE_g, align 8
  %101 = call i32 (ptr, ptr, i32, i64, i64, ptr, ...) @H5E_printf_stack(ptr noundef @.str.2, ptr noundef @__func__.H5Tencode, i32 noundef 3194, i64 noundef %99, i64 noundef %100, ptr noundef @.str.278)
  br label %102

102:                                              ; preds = %98
  store i8 1, ptr %10, align 1
  %103 = load i8, ptr %10, align 1
  %104 = trunc i8 %103 to i1
  %105 = zext i1 %104 to i8
  store i8 %105, ptr %10, align 1
  br label %106

106:                                              ; preds = %102
  br label %107

107:                                              ; preds = %106
  store i32 -1, ptr %8, align 4
  br label %132

108:                                              ; No predecessors!
  br label %109

109:                                              ; preds = %108
  br label %110

110:                                              ; preds = %109, %92
  %111 = load ptr, ptr %7, align 8
  %112 = load ptr, ptr %5, align 8
  %113 = load ptr, ptr %6, align 8
  %114 = call i32 @H5T_encode(ptr noundef %111, ptr noundef %112, ptr noundef %113)
  %115 = icmp slt i32 %114, 0
  br i1 %115, label %116, label %131

116:                                              ; preds = %110
  br label %117

117:                                              ; preds = %116
  br label %118

118:                                              ; preds = %117
  br label %119

119:                                              ; preds = %118
  %120 = load i64, ptr @H5E_DATATYPE_g, align 8
  %121 = load i64, ptr @H5E_CANTENCODE_g, align 8
  %122 = call i32 (ptr, ptr, i32, i64, i64, ptr, ...) @H5E_printf_stack(ptr noundef @.str.2, ptr noundef @__func__.H5Tencode, i32 noundef 3198, i64 noundef %120, i64 noundef %121, ptr noundef @.str.279)
  br label %123

123:                                              ; preds = %119
  store i8 1, ptr %10, align 1
  %124 = load i8, ptr %10, align 1
  %125 = trunc i8 %124 to i1
  %126 = zext i1 %125 to i8
  store i8 %126, ptr %10, align 1
  br label %127

127:                                              ; preds = %123
  br label %128

128:                                              ; preds = %127
  store i32 -1, ptr %8, align 4
  br label %132

129:                                              ; No predecessors!
  br label %130

130:                                              ; preds = %129
  br label %131

131:                                              ; preds = %130, %110
  br label %132

132:                                              ; preds = %131, %128, %107, %89, %68, %44
  %133 = load i8, ptr %9, align 1
  %134 = trunc i8 %133 to i1
  %135 = xor i1 %134, true
  %136 = xor i1 %135, true
  %137 = zext i1 %136 to i32
  %138 = sext i32 %137 to i64
  %139 = icmp ne i64 %138, 0
  br i1 %139, label %140, label %142

140:                                              ; preds = %132
  %141 = call i32 @H5CX_pop(i1 noundef zeroext true)
  store i8 0, ptr %9, align 1
  br label %142

142:                                              ; preds = %140, %132
  %143 = load i8, ptr %10, align 1
  %144 = trunc i8 %143 to i1
  %145 = xor i1 %144, true
  %146 = xor i1 %145, true
  %147 = zext i1 %146 to i32
  %148 = sext i32 %147 to i64
  %149 = icmp ne i64 %148, 0
  br i1 %149, label %150, label %152

150:                                              ; preds = %142
  %151 = call i32 @H5E_dump_api_stack()
  br label %152

152:                                              ; preds = %150, %142
  %153 = load i32, ptr %8, align 4
  ret i32 %153
}