; Function Attrs: nounwind uwtable
define range(i32 -1, 1) i32 @H5Tencode(i64 noundef %0, ptr noundef %1, ptr noundef %2) local_unnamed_addr #0 {
  %4 = load i8, ptr @H5_libinit_g, align 1
  %5 = trunc i8 %4 to i1
  %6 = load i8, ptr @H5_libterm_g, align 1
  %7 = trunc i8 %6 to i1
  %8 = select i1 %5, i1 true, i1 %7
  br i1 %8, label %16, label %9

9:                                                ; preds = %3
  %10 = tail call i32 @H5_init_library() #17
  %11 = icmp slt i32 %10, 0
  br i1 %11, label %12, label %16

12:                                               ; preds = %9
  %13 = load i64, ptr @H5E_FUNC_g, align 8
  %14 = load i64, ptr @H5E_CANTINIT_g, align 8
  %15 = tail call i32 (ptr, ptr, i32, i64, i64, ptr, ...) @H5E_printf_stack(ptr noundef nonnull @.str.2, ptr noundef nonnull @__func__.H5Tencode, i32 noundef 3188, i64 noundef %13, i64 noundef %14, ptr noundef nonnull @.str.221) #17
  br label %.thread24

16:                                               ; preds = %9, %3
  %17 = tail call i32 @H5CX_push() #17
  %18 = icmp slt i32 %17, 0
  br i1 %18, label %19, label %23

19:                                               ; preds = %16
  %20 = load i64, ptr @H5E_FUNC_g, align 8
  %21 = load i64, ptr @H5E_CANTSET_g, align 8
  %22 = tail call i32 (ptr, ptr, i32, i64, i64, ptr, ...) @H5E_printf_stack(ptr noundef nonnull @.str.2, ptr noundef nonnull @__func__.H5Tencode, i32 noundef 3188, i64 noundef %20, i64 noundef %21, ptr noundef nonnull @.str.222) #17
  br label %.thread24

23:                                               ; preds = %16
  %24 = tail call i32 @H5E_clear_stack() #17
  %25 = tail call ptr @H5I_object_verify(i64 noundef %0, i32 noundef 3) #17
  %26 = icmp eq ptr %25, null
  br i1 %26, label %27, label %31

27:                                               ; preds = %23
  %28 = load i64, ptr @H5E_ARGS_g, align 8
  %29 = load i64, ptr @H5E_BADTYPE_g, align 8
  %30 = tail call i32 (ptr, ptr, i32, i64, i64, ptr, ...) @H5E_printf_stack(ptr noundef nonnull @.str.2, ptr noundef nonnull @__func__.H5Tencode, i32 noundef 3192, i64 noundef %28, i64 noundef %29, ptr noundef nonnull @.str.12) #17
  br label %.thread30

31:                                               ; preds = %23
  %32 = icmp eq ptr %2, null
  br i1 %32, label %33, label %37

33:                                               ; preds = %31
  %34 = load i64, ptr @H5E_ARGS_g, align 8
  %35 = load i64, ptr @H5E_BADVALUE_g, align 8
  %36 = tail call i32 (ptr, ptr, i32, i64, i64, ptr, ...) @H5E_printf_stack(ptr noundef nonnull @.str.2, ptr noundef nonnull @__func__.H5Tencode, i32 noundef 3194, i64 noundef %34, i64 noundef %35, ptr noundef nonnull @.str.278) #17
  br label %.thread30

37:                                               ; preds = %31
  %38 = tail call i32 @H5T_encode(ptr noundef nonnull %25, ptr noundef %1, ptr noundef nonnull %2)
  %39 = icmp slt i32 %38, 0
  br i1 %39, label %40, label %45

40:                                               ; preds = %37
  %41 = load i64, ptr @H5E_DATATYPE_g, align 8
  %42 = load i64, ptr @H5E_CANTENCODE_g, align 8
  %43 = tail call i32 (ptr, ptr, i32, i64, i64, ptr, ...) @H5E_printf_stack(ptr noundef nonnull @.str.2, ptr noundef nonnull @__func__.H5Tencode, i32 noundef 3198, i64 noundef %41, i64 noundef %42, ptr noundef nonnull @.str.279) #17
  br label %.thread30

.thread30:                                        ; preds = %40, %33, %27
  %44 = tail call i32 @H5CX_pop(i1 noundef zeroext true) #17
  br label %.thread24

45:                                               ; preds = %37
  %46 = tail call i32 @H5CX_pop(i1 noundef zeroext true) #17
  br label %48

.thread24:                                        ; preds = %19, %12, %.thread30
  %47 = tail call i32 @H5E_dump_api_stack() #17
  br label %48

48:                                               ; preds = %45, %.thread24
  %.0131927 = phi i32 [ -1, %.thread24 ], [ 0, %45 ]
  ret i32 %.0131927
}